; ModuleID = '50/104.c'
source_filename = "50/104.c"
target datalayout = "e-m:e-p270:32:32-p271:32:32-p272:64:64-i64:64-f80:128-n8:16:32:64-S128"
target triple = "x86_64-pc-linux-gnu"

@.str = private unnamed_addr constant [3 x i8] c"%d\00", align 1
@__const.main.d = private unnamed_addr constant [12 x i32] [i32 0, i32 31, i32 28, i32 31, i32 30, i32 31, i32 30, i32 31, i32 31, i32 30, i32 31, i32 30], align 16
@.str.1 = private unnamed_addr constant [4 x i8] c"%d\0A\00", align 1

; Function Attrs: noinline nounwind uwtable
define dso_local i32 @main() #0 {
  %1 = alloca i32, align 4
  %2 = alloca i32, align 4
  %3 = alloca i32, align 4
  %4 = alloca i32, align 4
  %5 = alloca i32, align 4
  %6 = alloca [12 x i32], align 16
  store i32 0, i32* %1, align 4
  store i32 13, i32* %3, align 4
  %7 = call i32 (i8*, ...) @__isoc99_scanf(i8* getelementptr inbounds ([3 x i8], [3 x i8]* @.str, i64 0, i64 0), i32* %2)
  %8 = bitcast [12 x i32]* %6 to i8*
  call void @llvm.memcpy.p0i8.p0i8.i64(i8* align 16 %8, i8* align 16 bitcast ([12 x i32]* @__const.main.d to i8*), i64 48, i1 false)
  store i32 1, i32* %5, align 4
  br label %9

9:                                                ; preds = %37, %0
  %10 = load i32, i32* %5, align 4
  %11 = icmp sle i32 %10, 12
  br i1 %11, label %12, label %40

12:                                               ; preds = %9
  store i32 0, i32* %4, align 4
  %13 = load i32, i32* %5, align 4
  %14 = sub nsw i32 %13, 1
  %15 = sext i32 %14 to i64
  %16 = getelementptr inbounds [12 x i32], [12 x i32]* %6, i64 0, i64 %15
  %17 = load i32, i32* %16, align 4
  %18 = load i32, i32* %3, align 4
  %19 = add nsw i32 %18, %17
  store i32 %19, i32* %3, align 4
  %20 = load i32, i32* %3, align 4
  %21 = srem i32 %20, 7
  %22 = load i32, i32* %2, align 4
  %23 = add nsw i32 %21, %22
  %24 = sub nsw i32 %23, 1
  store i32 %24, i32* %4, align 4
  %25 = load i32, i32* %4, align 4
  %26 = icmp sgt i32 %25, 7
  br i1 %26, label %27, label %30

27:                                               ; preds = %12
  %28 = load i32, i32* %4, align 4
  %29 = srem i32 %28, 7
  store i32 %29, i32* %4, align 4
  br label %30

30:                                               ; preds = %27, %12
  %31 = load i32, i32* %4, align 4
  %32 = icmp eq i32 %31, 5
  br i1 %32, label %33, label %36

33:                                               ; preds = %30
  %34 = load i32, i32* %5, align 4
  %35 = call i32 (i8*, ...) @printf(i8* getelementptr inbounds ([4 x i8], [4 x i8]* @.str.1, i64 0, i64 0), i32 %34)
  br label %36

36:                                               ; preds = %33, %30
  br label %37

37:                                               ; preds = %36
  %38 = load i32, i32* %5, align 4
  %39 = add nsw i32 %38, 1
  store i32 %39, i32* %5, align 4
  br label %9

40:                                               ; preds = %9
  ret i32 0
}

declare dso_local i32 @__isoc99_scanf(i8*, ...) #1

; Function Attrs: argmemonly nounwind willreturn
declare void @llvm.memcpy.p0i8.p0i8.i64(i8* noalias nocapture writeonly, i8* noalias nocapture readonly, i64, i1 immarg) #2

declare dso_local i32 @printf(i8*, ...) #1


!llvm.module.flags = !{!0}
!llvm.ident = !{!1}

!0 = !{i32 1, !"wchar_size", i32 4}
!1 = !{!"clang version 10.0.0-4ubuntu1 "}
